target datalayout = "e-m:e-p270:32:32-p271:32:32-p272:64:64-i64:64-i128:128-f80:128-n8:16:32:64-S128"
target triple = "x86_64-pc-linux-gnu"

%struct.rsa_st = type { i32, ptr, i32, ptr, ptr, ptr, ptr, ptr, ptr, ptr, ptr, ptr, ptr, %struct.rsa_pss_params_30_st, ptr, ptr, %struct.crypto_ex_data_st, %struct.CRYPTO_REF_COUNT, i32, ptr, ptr, ptr, ptr, ptr, ptr, i32 }
%struct.rsa_pss_params_30_st = type { i32, %struct.anon, i32, i32 }
%struct.anon = type { i32, i32 }
%struct.crypto_ex_data_st = type { ptr, ptr }
%struct.CRYPTO_REF_COUNT = type { i32 }

@.str = private unnamed_addr constant [44 x i8] c"../openssl/crypto/rsa/rsa_sp800_56b_check.c\00", align 1
@__func__.ossl_rsa_sp800_56b_check_public = private unnamed_addr constant [32 x i8] c"ossl_rsa_sp800_56b_check_public\00", align 1

; Function Attrs: nounwind uwtable
define i32 @ossl_rsa_check_public_exponent(ptr noundef %0) #0 {
  %2 = alloca ptr, align 8
  store ptr %0, ptr %2, align 8, !tbaa !12
  %3 = load ptr, ptr %2, align 8, !tbaa !12
  %4 = call i32 @BN_is_odd(ptr noundef %3)
  %5 = icmp ne i32 %4, 0
  br i1 %5, label %6, label %11

6:                                                ; preds = %1
  %7 = load ptr, ptr %2, align 8, !tbaa !12
  %8 = call ptr @BN_value_one()
  %9 = call i32 @BN_cmp(ptr noundef %7, ptr noundef %8)
  %10 = icmp sgt i32 %9, 0
  br label %11

11:                                               ; preds = %6, %1
  %12 = phi i1 [ false, %1 ], [ %10, %6 ]
  %13 = zext i1 %12 to i32
  ret i32 %13
}

; Function Attrs: nounwind uwtable
define i32 @ossl_rsa_sp800_56b_check_public(ptr noundef %0) #0 {
  %2 = alloca i32, align 4
  %3 = alloca ptr, align 8
  %4 = alloca i32, align 4
  %5 = alloca i32, align 4
  %6 = alloca i32, align 4
  %7 = alloca ptr, align 8
  %8 = alloca ptr, align 8
  %9 = alloca i32, align 4
  store ptr %0, ptr %3, align 8, !tbaa !3
  call void @llvm.lifetime.start.p0(i64 4, ptr %4) #3
  store i32 0, ptr %4, align 4, !tbaa !10
  call void @llvm.lifetime.start.p0(i64 4, ptr %5) #3
  call void @llvm.lifetime.start.p0(i64 4, ptr %6) #3
  call void @llvm.lifetime.start.p0(i64 8, ptr %7) #3
  store ptr null, ptr %7, align 8, !tbaa !8
  call void @llvm.lifetime.start.p0(i64 8, ptr %8) #3
  store ptr null, ptr %8, align 8, !tbaa !12
  %10 = load ptr, ptr %3, align 8, !tbaa !3
  %11 = getelementptr inbounds nuw %struct.rsa_st, ptr %10, i32 0, i32 5
  %12 = load ptr, ptr %11, align 8, !tbaa !34
  %13 = icmp eq ptr %12, null
  br i1 %13, label %19, label %14

14:                                               ; preds = %1
  %15 = load ptr, ptr %3, align 8, !tbaa !3
  %16 = getelementptr inbounds nuw %struct.rsa_st, ptr %15, i32 0, i32 6
  %17 = load ptr, ptr %16, align 8, !tbaa !32
  %18 = icmp eq ptr %17, null
  br i1 %18, label %19, label %20

19:                                               ; preds = %14, %1
  store i32 0, ptr %2, align 4
  store i32 1, ptr %9, align 4
  br label %91

20:                                               ; preds = %14
  %21 = load ptr, ptr %3, align 8, !tbaa !3
  %22 = getelementptr inbounds nuw %struct.rsa_st, ptr %21, i32 0, i32 5
  %23 = load ptr, ptr %22, align 8, !tbaa !34
  %24 = call i32 @BN_num_bits(ptr noundef %23)
  store i32 %24, ptr %6, align 4, !tbaa !10
  %25 = load i32, ptr %6, align 4, !tbaa !10
  %26 = icmp sgt i32 %25, 16384
  br i1 %26, label %27, label %28

27:                                               ; preds = %20
  call void @ERR_new()
  call void @ERR_set_debug(ptr noundef @.str, i32 noundef 293, ptr noundef @__func__.ossl_rsa_sp800_56b_check_public)
  call void (i32, i32, ptr, ...) @ERR_set_error(i32 noundef 4, i32 noundef 105, ptr noundef null)
  store i32 0, ptr %2, align 4
  store i32 1, ptr %9, align 4
  br label %91

28:                                               ; preds = %20
  %29 = load ptr, ptr %3, align 8, !tbaa !3
  %30 = getelementptr inbounds nuw %struct.rsa_st, ptr %29, i32 0, i32 5
  %31 = load ptr, ptr %30, align 8, !tbaa !34
  %32 = call i32 @BN_is_odd(ptr noundef %31)
  %33 = icmp ne i32 %32, 0
  br i1 %33, label %35, label %34

34:                                               ; preds = %28
  call void @ERR_new()
  call void @ERR_set_debug(ptr noundef @.str, i32 noundef 308, ptr noundef @__func__.ossl_rsa_sp800_56b_check_public)
  call void (i32, i32, ptr, ...) @ERR_set_error(i32 noundef 4, i32 noundef 174, ptr noundef null)
  store i32 0, ptr %2, align 4
  store i32 1, ptr %9, align 4
  br label %91

35:                                               ; preds = %28
  %36 = load ptr, ptr %3, align 8, !tbaa !3
  %37 = getelementptr inbounds nuw %struct.rsa_st, ptr %36, i32 0, i32 6
  %38 = load ptr, ptr %37, align 8, !tbaa !32
  %39 = call i32 @ossl_rsa_check_public_exponent(ptr noundef %38)
  %40 = icmp ne i32 %39, 0
  br i1 %40, label %42, label %41

41:                                               ; preds = %35
  call void @ERR_new()
  call void @ERR_set_debug(ptr noundef @.str, i32 noundef 313, ptr noundef @__func__.ossl_rsa_sp800_56b_check_public)
  call void (i32, i32, ptr, ...) @ERR_set_error(i32 noundef 4, i32 noundef 178, ptr noundef null)
  store i32 0, ptr %2, align 4
  store i32 1, ptr %9, align 4
  br label %91

42:                                               ; preds = %35
  %43 = load ptr, ptr %3, align 8, !tbaa !3
  %44 = getelementptr inbounds nuw %struct.rsa_st, ptr %43, i32 0, i32 1
  %45 = load ptr, ptr %44, align 8, !tbaa !35
  %46 = call ptr @BN_CTX_new_ex(ptr noundef %45)
  store ptr %46, ptr %7, align 8, !tbaa !8
  %47 = call ptr @BN_new()
  store ptr %47, ptr %8, align 8, !tbaa !12
  %48 = load ptr, ptr %7, align 8, !tbaa !8
  %49 = icmp eq ptr %48, null
  br i1 %49, label %53, label %50

50:                                               ; preds = %42
  %51 = load ptr, ptr %8, align 8, !tbaa !12
  %52 = icmp eq ptr %51, null
  br i1 %52, label %53, label %54

53:                                               ; preds = %50, %42
  br label %87

54:                                               ; preds = %50
  %55 = load ptr, ptr %8, align 8, !tbaa !12
  %56 = load ptr, ptr %3, align 8, !tbaa !3
  %57 = getelementptr inbounds nuw %struct.rsa_st, ptr %56, i32 0, i32 5
  %58 = load ptr, ptr %57, align 8, !tbaa !34
  %59 = call ptr @ossl_bn_get0_small_factors()
  %60 = load ptr, ptr %7, align 8, !tbaa !8
  %61 = call i32 @BN_gcd(ptr noundef %55, ptr noundef %58, ptr noundef %59, ptr noundef %60)
  %62 = icmp ne i32 %61, 0
  br i1 %62, label %63, label %67

63:                                               ; preds = %54
  %64 = load ptr, ptr %8, align 8, !tbaa !12
  %65 = call i32 @BN_is_one(ptr noundef %64)
  %66 = icmp ne i32 %65, 0
  br i1 %66, label %68, label %67

67:                                               ; preds = %63, %54
  call void @ERR_new()
  call void @ERR_set_debug(ptr noundef @.str, i32 noundef 328, ptr noundef @__func__.ossl_rsa_sp800_56b_check_public)
  call void (i32, i32, ptr, ...) @ERR_set_error(i32 noundef 4, i32 noundef 174, ptr noundef null)
  br label %87

68:                                               ; preds = %63
  %69 = load ptr, ptr %3, align 8, !tbaa !3
  %70 = getelementptr inbounds nuw %struct.rsa_st, ptr %69, i32 0, i32 5
  %71 = load ptr, ptr %70, align 8, !tbaa !34
  %72 = load ptr, ptr %7, align 8, !tbaa !8
  %73 = call i32 @ossl_bn_miller_rabin_is_prime(ptr noundef %71, i32 noundef 5, ptr noundef %72, ptr noundef null, i32 noundef 1, ptr noundef %5)
  store i32 %73, ptr %4, align 4, !tbaa !10
  %74 = load i32, ptr %4, align 4, !tbaa !10
  %75 = icmp ne i32 %74, 1
  br i1 %75, label %85, label %76

76:                                               ; preds = %68
  %77 = load i32, ptr %5, align 4, !tbaa !10
  %78 = icmp ne i32 %77, 2
  br i1 %78, label %79, label %86

79:                                               ; preds = %76
  %80 = load i32, ptr %6, align 4, !tbaa !10
  %81 = icmp sge i32 %80, 512
  br i1 %81, label %85, label %82

82:                                               ; preds = %79
  %83 = load i32, ptr %5, align 4, !tbaa !10
  %84 = icmp ne i32 %83, 1
  br i1 %84, label %85, label %86

85:                                               ; preds = %82, %79, %68
  call void @ERR_new()
  call void @ERR_set_debug(ptr noundef @.str, i32 noundef 341, ptr noundef @__func__.ossl_rsa_sp800_56b_check_public)
  call void (i32, i32, ptr, ...) @ERR_set_error(i32 noundef 4, i32 noundef 174, ptr noundef null)
  store i32 0, ptr %4, align 4, !tbaa !10
  br label %87

86:                                               ; preds = %82, %76
  store i32 1, ptr %4, align 4, !tbaa !10
  br label %87

87:                                               ; preds = %86, %85, %67, %53
  %88 = load ptr, ptr %8, align 8, !tbaa !12
  call void @BN_free(ptr noundef %88)
  %89 = load ptr, ptr %7, align 8, !tbaa !8
  call void @BN_CTX_free(ptr noundef %89)
  %90 = load i32, ptr %4, align 4, !tbaa !10
  store i32 %90, ptr %2, align 4
  store i32 1, ptr %9, align 4
  br label %91

91:                                               ; preds = %87, %41, %34, %27, %19
  call void @llvm.lifetime.end.p0(i64 8, ptr %8) #3
  call void @llvm.lifetime.end.p0(i64 8, ptr %7) #3
  call void @llvm.lifetime.end.p0(i64 4, ptr %6) #3
  call void @llvm.lifetime.end.p0(i64 4, ptr %5) #3
  call void @llvm.lifetime.end.p0(i64 4, ptr %4) #3
  %92 = load i32, ptr %2, align 4
  ret i32 %92
}