; Function Attrs: nounwind uwtable
define range(i32 0, 2) i32 @ossl_rsa_sp800_56b_check_public(ptr noundef readonly captures(none) %0) local_unnamed_addr #0 {
  %2 = alloca i32, align 4
  call void @llvm.lifetime.start.p0(i64 4, ptr nonnull %2) #3
  %3 = getelementptr inbounds nuw i8, ptr %0, i64 40
  %4 = load ptr, ptr %3, align 8, !tbaa !28
  %5 = icmp eq ptr %4, null
  br i1 %5, label %48, label %6

6:                                                ; preds = %1
  %7 = getelementptr inbounds nuw i8, ptr %0, i64 48
  %8 = load ptr, ptr %7, align 8, !tbaa !26
  %9 = icmp eq ptr %8, null
  br i1 %9, label %48, label %10

10:                                               ; preds = %6
  %11 = tail call i32 @BN_num_bits(ptr noundef nonnull %4) #3
  %12 = icmp sgt i32 %11, 16384
  br i1 %12, label %13, label %14

13:                                               ; preds = %10
  tail call void @ERR_new() #3
  tail call void @ERR_set_debug(ptr noundef nonnull @.str, i32 noundef 293, ptr noundef nonnull @__func__.ossl_rsa_sp800_56b_check_public) #3
  tail call void (i32, i32, ptr, ...) @ERR_set_error(i32 noundef 4, i32 noundef 105, ptr noundef null) #3
  br label %48

14:                                               ; preds = %10
  %15 = load ptr, ptr %3, align 8, !tbaa !28
  %16 = tail call i32 @BN_is_odd(ptr noundef %15) #3
  %.not = icmp eq i32 %16, 0
  br i1 %.not, label %17, label %18

17:                                               ; preds = %14
  tail call void @ERR_new() #3
  tail call void @ERR_set_debug(ptr noundef nonnull @.str, i32 noundef 308, ptr noundef nonnull @__func__.ossl_rsa_sp800_56b_check_public) #3
  tail call void (i32, i32, ptr, ...) @ERR_set_error(i32 noundef 4, i32 noundef 174, ptr noundef null) #3
  br label %48

18:                                               ; preds = %14
  %19 = load ptr, ptr %7, align 8, !tbaa !26
  %20 = tail call i32 @BN_is_odd(ptr noundef %19) #3
  %.not.i = icmp eq i32 %20, 0
  br i1 %.not.i, label %ossl_rsa_check_public_exponent.exit.thread, label %ossl_rsa_check_public_exponent.exit

ossl_rsa_check_public_exponent.exit:              ; preds = %18
  %21 = tail call ptr @BN_value_one() #3
  %22 = tail call i32 @BN_cmp(ptr noundef %19, ptr noundef %21) #3
  %23 = icmp slt i32 %22, 1
  br i1 %23, label %ossl_rsa_check_public_exponent.exit.thread, label %24

ossl_rsa_check_public_exponent.exit.thread:       ; preds = %18, %ossl_rsa_check_public_exponent.exit
  tail call void @ERR_new() #3
  tail call void @ERR_set_debug(ptr noundef nonnull @.str, i32 noundef 313, ptr noundef nonnull @__func__.ossl_rsa_sp800_56b_check_public) #3
  tail call void (i32, i32, ptr, ...) @ERR_set_error(i32 noundef 4, i32 noundef 178, ptr noundef null) #3
  br label %48

24:                                               ; preds = %ossl_rsa_check_public_exponent.exit
  %25 = getelementptr inbounds nuw i8, ptr %0, i64 8
  %26 = load ptr, ptr %25, align 8, !tbaa !29
  %27 = tail call ptr @BN_CTX_new_ex(ptr noundef %26) #3
  %28 = tail call ptr @BN_new() #3
  %29 = icmp eq ptr %27, null
  %30 = icmp eq ptr %28, null
  %or.cond = select i1 %29, i1 true, i1 %30
  br i1 %or.cond, label %47, label %31

31:                                               ; preds = %24
  %32 = load ptr, ptr %3, align 8, !tbaa !28
  %33 = tail call ptr @ossl_bn_get0_small_factors() #3
  %34 = tail call i32 @BN_gcd(ptr noundef nonnull %28, ptr noundef %32, ptr noundef %33, ptr noundef nonnull %27) #3
  %.not30 = icmp eq i32 %34, 0
  br i1 %.not30, label %37, label %35

35:                                               ; preds = %31
  %36 = tail call i32 @BN_is_one(ptr noundef nonnull %28) #3
  %.not31 = icmp eq i32 %36, 0
  br i1 %.not31, label %37, label %38

37:                                               ; preds = %35, %31
  tail call void @ERR_new() #3
  tail call void @ERR_set_debug(ptr noundef nonnull @.str, i32 noundef 328, ptr noundef nonnull @__func__.ossl_rsa_sp800_56b_check_public) #3
  tail call void (i32, i32, ptr, ...) @ERR_set_error(i32 noundef 4, i32 noundef 174, ptr noundef null) #3
  br label %47

38:                                               ; preds = %35
  %39 = load ptr, ptr %3, align 8, !tbaa !28
  %40 = call i32 @ossl_bn_miller_rabin_is_prime(ptr noundef %39, i32 noundef 5, ptr noundef nonnull %27, ptr noundef null, i32 noundef 1, ptr noundef nonnull %2) #3
  %.not32 = icmp eq i32 %40, 1
  br i1 %.not32, label %41, label %46

41:                                               ; preds = %38
  %42 = load i32, ptr %2, align 4, !tbaa !30
  %.not33 = icmp eq i32 %42, 2
  br i1 %.not33, label %47, label %43

43:                                               ; preds = %41
  %44 = icmp sgt i32 %11, 511
  %45 = icmp ne i32 %42, 1
  %or.cond3 = or i1 %44, %45
  br i1 %or.cond3, label %46, label %47

46:                                               ; preds = %43, %38
  call void @ERR_new() #3
  call void @ERR_set_debug(ptr noundef nonnull @.str, i32 noundef 341, ptr noundef nonnull @__func__.ossl_rsa_sp800_56b_check_public) #3
  call void (i32, i32, ptr, ...) @ERR_set_error(i32 noundef 4, i32 noundef 174, ptr noundef null) #3
  br label %47

47:                                               ; preds = %41, %43, %24, %46, %37
  %.023 = phi i32 [ 0, %24 ], [ 0, %46 ], [ 0, %37 ], [ 1, %43 ], [ 1, %41 ]
  call void @BN_free(ptr noundef %28) #3
  call void @BN_CTX_free(ptr noundef %27) #3
  br label %48

48:                                               ; preds = %1, %6, %47, %ossl_rsa_check_public_exponent.exit.thread, %17, %13
  %.0 = phi i32 [ 0, %13 ], [ %.023, %47 ], [ 0, %ossl_rsa_check_public_exponent.exit.thread ], [ 0, %17 ], [ 0, %6 ], [ 0, %1 ]
  call void @llvm.lifetime.end.p0(i64 4, ptr nonnull %2) #3
  ret i32 %.0
}